; ModuleID = '36/1375.c'
source_filename = "36/1375.c"
target datalayout = "e-m:e-p270:32:32-p271:32:32-p272:64:64-i64:64-f80:128-n8:16:32:64-S128"
target triple = "x86_64-pc-linux-gnu"

@.str = private unnamed_addr constant [3 x i8] c"%c\00", align 1
@.str.1 = private unnamed_addr constant [4 x i8] c"YES\00", align 1
@.str.2 = private unnamed_addr constant [3 x i8] c"NO\00", align 1

; Function Attrs: noinline nounwind uwtable
define dso_local i32 @main() #0 {
  %1 = alloca i32, align 4
  %2 = alloca [100 x i8], align 16
  %3 = alloca [100 x i8], align 16
  %4 = alloca i32, align 4
  %5 = alloca i32, align 4
  %6 = alloca i32, align 4
  %7 = alloca i32, align 4
  %8 = alloca i32, align 4
  store i32 0, i32* %1, align 4
  %9 = bitcast [100 x i8]* %2 to i8*
  call void @llvm.memset.p0i8.i64(i8* align 16 %9, i8 0, i64 100, i1 false)
  %10 = bitcast [100 x i8]* %3 to i8*
  call void @llvm.memset.p0i8.i64(i8* align 16 %10, i8 0, i64 100, i1 false)
  store i32 0, i32* %6, align 4
  store i32 0, i32* %4, align 4
  br label %11

11:                                               ; preds = %27, %0
  %12 = load i32, i32* %4, align 4
  %13 = icmp sle i32 %12, 100
  br i1 %13, label %14, label %30

14:                                               ; preds = %11
  %15 = load i32, i32* %4, align 4
  %16 = sext i32 %15 to i64
  %17 = getelementptr inbounds [100 x i8], [100 x i8]* %2, i64 0, i64 %16
  %18 = call i32 (i8*, ...) @__isoc99_scanf(i8* getelementptr inbounds ([3 x i8], [3 x i8]* @.str, i64 0, i64 0), i8* %17)
  %19 = load i32, i32* %4, align 4
  %20 = sext i32 %19 to i64
  %21 = getelementptr inbounds [100 x i8], [100 x i8]* %2, i64 0, i64 %20
  %22 = load i8, i8* %21, align 1
  %23 = sext i8 %22 to i32
  %24 = icmp eq i32 %23, 32
  br i1 %24, label %25, label %26

25:                                               ; preds = %14
  br label %30

26:                                               ; preds = %14
  br label %27

27:                                               ; preds = %26
  %28 = load i32, i32* %4, align 4
  %29 = add nsw i32 %28, 1
  store i32 %29, i32* %4, align 4
  br label %11

30:                                               ; preds = %25, %11
  store i32 0, i32* %4, align 4
  br label %31

31:                                               ; preds = %47, %30
  %32 = load i32, i32* %4, align 4
  %33 = icmp sle i32 %32, 100
  br i1 %33, label %34, label %50

34:                                               ; preds = %31
  %35 = load i32, i32* %4, align 4
  %36 = sext i32 %35 to i64
  %37 = getelementptr inbounds [100 x i8], [100 x i8]* %3, i64 0, i64 %36
  %38 = call i32 (i8*, ...) @__isoc99_scanf(i8* getelementptr inbounds ([3 x i8], [3 x i8]* @.str, i64 0, i64 0), i8* %37)
  %39 = load i32, i32* %4, align 4
  %40 = sext i32 %39 to i64
  %41 = getelementptr inbounds [100 x i8], [100 x i8]* %3, i64 0, i64 %40
  %42 = load i8, i8* %41, align 1
  %43 = sext i8 %42 to i32
  %44 = icmp eq i32 %43, 10
  br i1 %44, label %45, label %46

45:                                               ; preds = %34
  br label %50

46:                                               ; preds = %34
  br label %47

47:                                               ; preds = %46
  %48 = load i32, i32* %4, align 4
  %49 = add nsw i32 %48, 1
  store i32 %49, i32* %4, align 4
  br label %31

50:                                               ; preds = %45, %31
  %51 = getelementptr inbounds [100 x i8], [100 x i8]* %2, i64 0, i64 0
  %52 = call i64 @strlen(i8* %51) #4
  %53 = sub i64 %52, 1
  %54 = trunc i64 %53 to i32
  store i32 %54, i32* %7, align 4
  %55 = getelementptr inbounds [100 x i8], [100 x i8]* %3, i64 0, i64 0
  %56 = call i64 @strlen(i8* %55) #4
  %57 = sub i64 %56, 1
  %58 = trunc i64 %57 to i32
  store i32 %58, i32* %8, align 4
  %59 = load i32, i32* %7, align 4
  %60 = load i32, i32* %8, align 4
  %61 = icmp eq i32 %59, %60
  br i1 %61, label %62, label %101

62:                                               ; preds = %50
  store i32 0, i32* %4, align 4
  br label %63

63:                                               ; preds = %97, %62
  %64 = load i32, i32* %4, align 4
  %65 = load i32, i32* %7, align 4
  %66 = icmp sle i32 %64, %65
  br i1 %66, label %67, label %100

67:                                               ; preds = %63
  store i32 0, i32* %6, align 4
  store i32 0, i32* %5, align 4
  br label %68

68:                                               ; preds = %89, %67
  %69 = load i32, i32* %5, align 4
  %70 = load i32, i32* %8, align 4
  %71 = icmp sle i32 %69, %70
  br i1 %71, label %72, label %92

72:                                               ; preds = %68
  %73 = load i32, i32* %4, align 4
  %74 = sext i32 %73 to i64
  %75 = getelementptr inbounds [100 x i8], [100 x i8]* %2, i64 0, i64 %74
  %76 = load i8, i8* %75, align 1
  %77 = sext i8 %76 to i32
  %78 = load i32, i32* %5, align 4
  %79 = sext i32 %78 to i64
  %80 = getelementptr inbounds [100 x i8], [100 x i8]* %3, i64 0, i64 %79
  %81 = load i8, i8* %80, align 1
  %82 = sext i8 %81 to i32
  %83 = icmp eq i32 %77, %82
  br i1 %83, label %84, label %88

84:                                               ; preds = %72
  store i32 1, i32* %6, align 4
  %85 = load i32, i32* %5, align 4
  %86 = sext i32 %85 to i64
  %87 = getelementptr inbounds [100 x i8], [100 x i8]* %3, i64 0, i64 %86
  store i8 32, i8* %87, align 1
  br label %92

88:                                               ; preds = %72
  br label %89

89:                                               ; preds = %88
  %90 = load i32, i32* %5, align 4
  %91 = add nsw i32 %90, 1
  store i32 %91, i32* %5, align 4
  br label %68

92:                                               ; preds = %84, %68
  %93 = load i32, i32* %6, align 4
  %94 = icmp eq i32 %93, 0
  br i1 %94, label %95, label %96

95:                                               ; preds = %92
  br label %100

96:                                               ; preds = %92
  br label %97

97:                                               ; preds = %96
  %98 = load i32, i32* %4, align 4
  %99 = add nsw i32 %98, 1
  store i32 %99, i32* %4, align 4
  br label %63

100:                                              ; preds = %95, %63
  br label %101

101:                                              ; preds = %100, %50
  %102 = load i32, i32* %6, align 4
  %103 = icmp eq i32 %102, 1
  br i1 %103, label %104, label %106

104:                                              ; preds = %101
  %105 = call i32 (i8*, ...) @printf(i8* getelementptr inbounds ([4 x i8], [4 x i8]* @.str.1, i64 0, i64 0))
  br label %108

106:                                              ; preds = %101
  %107 = call i32 (i8*, ...) @printf(i8* getelementptr inbounds ([3 x i8], [3 x i8]* @.str.2, i64 0, i64 0))
  br label %108

108:                                              ; preds = %106, %104
  ret i32 0
}

; Function Attrs: argmemonly nounwind willreturn
declare void @llvm.memset.p0i8.i64(i8* nocapture writeonly, i8, i64, i1 immarg) #1

declare dso_local i32 @__isoc99_scanf(i8*, ...) #2

; Function Attrs: nounwind readonly
declare dso_local i64 @strlen(i8*) #3

declare dso_local i32 @printf(i8*, ...) #2


!llvm.module.flags = !{!0}
!llvm.ident = !{!1}

!0 = !{i32 1, !"wchar_size", i32 4}
!1 = !{!"clang version 10.0.0-4ubuntu1 "}
